; Function Attrs: nounwind uwtable
define ptr @duckdb_je_prof_tdata_init(ptr noundef %0) local_unnamed_addr #4 {
  %2 = tail call i32 @pthread_mutex_trylock(ptr noundef nonnull getelementptr inbounds nuw (i8, ptr @next_thr_uid_mtx, i64 72)) #10
  %.not.i.i = icmp eq i32 %2, 0
  br i1 %.not.i.i, label %3, label %atomic_store_b.exit.i.i

atomic_store_b.exit.i.i:                          ; preds = %1
  tail call void @duckdb_je_malloc_mutex_lock_slow(ptr noundef nonnull @next_thr_uid_mtx) #10
  store atomic i8 1, ptr getelementptr inbounds nuw (i8, ptr @next_thr_uid_mtx, i64 64) monotonic, align 8
  br label %3

3:                                                ; preds = %atomic_store_b.exit.i.i, %1
  %4 = load i64, ptr getelementptr inbounds nuw (i8, ptr @next_thr_uid_mtx, i64 56), align 8, !tbaa !6
  %5 = add i64 %4, 1
  store i64 %5, ptr getelementptr inbounds nuw (i8, ptr @next_thr_uid_mtx, i64 56), align 8, !tbaa !6
  %6 = load ptr, ptr getelementptr inbounds nuw (i8, ptr @next_thr_uid_mtx, i64 48), align 8, !tbaa !14
  %.not.i.i.i = icmp eq ptr %6, %0
  br i1 %.not.i.i.i, label %prof_thr_uid_alloc.exit, label %7

7:                                                ; preds = %3
  store ptr %0, ptr getelementptr inbounds nuw (i8, ptr @next_thr_uid_mtx, i64 48), align 8, !tbaa !14
  %8 = load i64, ptr getelementptr inbounds nuw (i8, ptr @next_thr_uid_mtx, i64 40), align 8, !tbaa !15
  %9 = add i64 %8, 1
  store i64 %9, ptr getelementptr inbounds nuw (i8, ptr @next_thr_uid_mtx, i64 40), align 8, !tbaa !15
  br label %prof_thr_uid_alloc.exit

prof_thr_uid_alloc.exit:                          ; preds = %3, %7
  %10 = load i64, ptr @next_thr_uid, align 8, !tbaa !16
  %11 = add i64 %10, 1
  store i64 %11, ptr @next_thr_uid, align 8, !tbaa !16
  store atomic i8 0, ptr getelementptr inbounds nuw (i8, ptr @next_thr_uid_mtx, i64 64) monotonic, align 8
  %12 = tail call i32 @pthread_mutex_unlock(ptr noundef nonnull getelementptr inbounds nuw (i8, ptr @next_thr_uid_mtx, i64 72)) #10
  %13 = tail call i32 @pthread_mutex_trylock(ptr noundef nonnull getelementptr inbounds nuw (i8, ptr @prof_thread_active_init_mtx, i64 72)) #10
  %.not.i.i3 = icmp eq i32 %13, 0
  br i1 %.not.i.i3, label %14, label %atomic_store_b.exit.i.i4

atomic_store_b.exit.i.i4:                         ; preds = %prof_thr_uid_alloc.exit
  tail call void @duckdb_je_malloc_mutex_lock_slow(ptr noundef nonnull @prof_thread_active_init_mtx) #10
  store atomic i8 1, ptr getelementptr inbounds nuw (i8, ptr @prof_thread_active_init_mtx, i64 64) monotonic, align 8
  br label %14

14:                                               ; preds = %atomic_store_b.exit.i.i4, %prof_thr_uid_alloc.exit
  %15 = load i64, ptr getelementptr inbounds nuw (i8, ptr @prof_thread_active_init_mtx, i64 56), align 8, !tbaa !6
  %16 = add i64 %15, 1
  store i64 %16, ptr getelementptr inbounds nuw (i8, ptr @prof_thread_active_init_mtx, i64 56), align 8, !tbaa !6
  %17 = load ptr, ptr getelementptr inbounds nuw (i8, ptr @prof_thread_active_init_mtx, i64 48), align 8, !tbaa !14
  %.not.i.i.i5 = icmp eq ptr %17, %0
  br i1 %.not.i.i.i5, label %duckdb_je_prof_thread_active_init_get.exit, label %18

18:                                               ; preds = %14
  store ptr %0, ptr getelementptr inbounds nuw (i8, ptr @prof_thread_active_init_mtx, i64 48), align 8, !tbaa !14
  %19 = load i64, ptr getelementptr inbounds nuw (i8, ptr @prof_thread_active_init_mtx, i64 40), align 8, !tbaa !15
  %20 = add i64 %19, 1
  store i64 %20, ptr getelementptr inbounds nuw (i8, ptr @prof_thread_active_init_mtx, i64 40), align 8, !tbaa !15
  br label %duckdb_je_prof_thread_active_init_get.exit

duckdb_je_prof_thread_active_init_get.exit:       ; preds = %14, %18
  %21 = load i8, ptr @prof_thread_active_init, align 1, !tbaa !17, !range !19, !noundef !20
  %22 = trunc nuw i8 %21 to i1
  store atomic i8 0, ptr getelementptr inbounds nuw (i8, ptr @prof_thread_active_init_mtx, i64 64) monotonic, align 8
  %23 = tail call i32 @pthread_mutex_unlock(ptr noundef nonnull getelementptr inbounds nuw (i8, ptr @prof_thread_active_init_mtx, i64 72)) #10
  %24 = tail call ptr @duckdb_je_prof_tdata_init_impl(ptr noundef %0, i64 noundef %10, i64 noundef 0, ptr noundef null, i1 noundef zeroext %22) #10
  ret ptr %24
}